; Function Attrs: nounwind uwtable
define ptr @l_Lake_LeanLib_leancArgs___boxed(ptr noundef %0) local_unnamed_addr #0 {
  %2 = getelementptr inbounds nuw i8, ptr %0, i64 8
  %3 = load ptr, ptr %2, align 8, !tbaa !4
  %4 = getelementptr inbounds nuw i8, ptr %3, i64 32
  %5 = load ptr, ptr %4, align 8, !tbaa !4
  %6 = getelementptr inbounds nuw i8, ptr %5, i64 16
  %7 = load ptr, ptr %6, align 8, !tbaa !4
  %8 = getelementptr inbounds nuw i8, ptr %7, i64 112
  %9 = load i8, ptr %8, align 1, !tbaa !14
  %10 = getelementptr inbounds nuw i8, ptr %0, i64 24
  %11 = load ptr, ptr %10, align 8, !tbaa !4
  %12 = getelementptr inbounds nuw i8, ptr %11, i64 8
  %13 = load ptr, ptr %12, align 8, !tbaa !4
  %14 = getelementptr inbounds nuw i8, ptr %13, i64 112
  %15 = load i8, ptr %14, align 1, !tbaa !14
  %16 = load ptr, ptr @l_Lake_instOrdBuildType, align 8, !tbaa !4
  %17 = zext i8 %9 to i64
  %18 = shl nuw nsw i64 %17, 1
  %19 = or disjoint i64 %18, 1
  %20 = inttoptr i64 %19 to ptr
  %21 = zext i8 %15 to i64
  %22 = shl nuw nsw i64 %21, 1
  %23 = or disjoint i64 %22, 1
  %24 = inttoptr i64 %23 to ptr
  %25 = tail call zeroext i8 @l_Ord_instDecidableRelLe___rarg(ptr noundef %16, ptr noundef nonnull %20, ptr noundef nonnull %24) #4
  %26 = icmp eq i8 %25, 0
  %27 = getelementptr inbounds nuw i8, ptr %7, i64 32
  %28 = load ptr, ptr %27, align 8, !tbaa !4
  %29 = getelementptr inbounds nuw i8, ptr %13, i64 32
  %30 = load ptr, ptr %29, align 8, !tbaa !4
  %..i = select i1 %26, i8 %15, i8 %9
  %31 = tail call ptr @l_Lake_BuildType_leancArgs(i8 noundef zeroext %..i) #4
  %32 = tail call ptr @l_Array_append___rarg(ptr noundef %31, ptr noundef %28) #4
  %33 = tail call ptr @l_Array_append___rarg(ptr noundef %32, ptr noundef %30) #4
  %34 = ptrtoint ptr %0 to i64
  %35 = and i64 %34, 1
  %.not = icmp eq i64 %35, 0
  br i1 %.not, label %36, label %lean_dec.exit

36:                                               ; preds = %1
  %37 = load i32, ptr %0, align 4, !tbaa !8
  %38 = icmp sgt i32 %37, 1
  br i1 %38, label %39, label %41, !prof !11

39:                                               ; preds = %36
  %40 = add nsw i32 %37, -1
  store i32 %40, ptr %0, align 4, !tbaa !8
  br label %lean_dec.exit

41:                                               ; preds = %36
  %.not.i = icmp eq i32 %37, 0
  br i1 %.not.i, label %lean_dec.exit, label %42

42:                                               ; preds = %41
  tail call void @lean_dec_ref_cold(ptr noundef nonnull %0) #4
  br label %lean_dec.exit

lean_dec.exit:                                    ; preds = %42, %41, %39, %1
  ret ptr %33
}